target datalayout = "e-m:e-p270:32:32-p271:32:32-p272:64:64-i64:64-i128:128-f80:128-n8:16:32:64-S128"
target triple = "x86_64-pc-linux-gnu"

%struct.DH_PKEY_CTX = type { i32, i32, i32, i32, i32, ptr, i32, [2 x i32], i8, ptr, ptr, ptr, i64, i64 }
%struct.evp_pkey_ctx_st = type { i32, ptr, ptr, ptr, ptr, %union.anon, %struct.anon.4, ptr, ptr, ptr, i32, i32, ptr, ptr, ptr, ptr, ptr, i8, ptr }
%union.anon = type { %struct.anon.0 }
%struct.anon.0 = type { ptr, ptr }
%struct.anon.4 = type { ptr, ptr, i64, i8 }

@.str = private unnamed_addr constant [32 x i8] c"../openssl/crypto/dh/dh_pmeth.c\00", align 1
@.str.1 = private unnamed_addr constant [22 x i8] c"dh_paramgen_prime_len\00", align 1
@.str.2 = private unnamed_addr constant [11 x i8] c"dh_rfc5114\00", align 1
@.str.3 = private unnamed_addr constant [9 x i8] c"dh_param\00", align 1
@__func__.pkey_dh_ctrl_str = private unnamed_addr constant [17 x i8] c"pkey_dh_ctrl_str\00", align 1
@.str.4 = private unnamed_addr constant [22 x i8] c"dh_paramgen_generator\00", align 1
@.str.5 = private unnamed_addr constant [25 x i8] c"dh_paramgen_subprime_len\00", align 1
@.str.6 = private unnamed_addr constant [17 x i8] c"dh_paramgen_type\00", align 1
@.str.7 = private unnamed_addr constant [7 x i8] c"dh_pad\00", align 1

; Function Attrs: inlinehint nounwind willreturn memory(read) uwtable
define available_externally i32 @atoi(ptr noundef nonnull %0) #4 {
  %2 = alloca ptr, align 8
  store ptr %0, ptr %2, align 8, !tbaa !51
  %3 = load ptr, ptr %2, align 8, !tbaa !51
  %4 = call i64 @strtol(ptr noundef %3, ptr noundef null, i32 noundef 10) #6
  %5 = trunc i64 %4 to i32
  ret i32 %5
}

; Function Attrs: nounwind uwtable
define internal i32 @pkey_dh_ctrl_str(ptr noundef %0, ptr noundef %1, ptr noundef %2) #0 {
  %4 = alloca i32, align 4
  %5 = alloca ptr, align 8
  %6 = alloca ptr, align 8
  %7 = alloca ptr, align 8
  %8 = alloca i32, align 4
  %9 = alloca ptr, align 8
  %10 = alloca i32, align 4
  %11 = alloca i32, align 4
  %12 = alloca ptr, align 8
  %13 = alloca i32, align 4
  %14 = alloca i32, align 4
  %15 = alloca i32, align 4
  %16 = alloca i32, align 4
  %17 = alloca i32, align 4
  store ptr %0, ptr %5, align 8, !tbaa !3
  store ptr %1, ptr %6, align 8, !tbaa !51
  store ptr %2, ptr %7, align 8, !tbaa !51
  %18 = load ptr, ptr %6, align 8, !tbaa !51
  %19 = call i32 @strcmp(ptr noundef %18, ptr noundef @.str.1) #7
  %20 = icmp eq i32 %19, 0
  br i1 %20, label %21, label %27

21:                                               ; preds = %3
  call void @llvm.lifetime.start.p0(i64 4, ptr %8) #6
  %22 = load ptr, ptr %7, align 8, !tbaa !51
  %23 = call i32 @atoi(ptr noundef %22) #7
  store i32 %23, ptr %8, align 4, !tbaa !45
  %24 = load ptr, ptr %5, align 8, !tbaa !3
  %25 = load i32, ptr %8, align 4, !tbaa !45
  %26 = call i32 @EVP_PKEY_CTX_set_dh_paramgen_prime_len(ptr noundef %24, i32 noundef %25)
  store i32 %26, ptr %4, align 4
  call void @llvm.lifetime.end.p0(i64 4, ptr %8) #6
  br label %107

27:                                               ; preds = %3
  %28 = load ptr, ptr %6, align 8, !tbaa !51
  %29 = call i32 @strcmp(ptr noundef %28, ptr noundef @.str.2) #7
  %30 = icmp eq i32 %29, 0
  br i1 %30, label %31, label %48

31:                                               ; preds = %27
  call void @llvm.lifetime.start.p0(i64 8, ptr %9) #6
  %32 = load ptr, ptr %5, align 8, !tbaa !3
  %33 = getelementptr inbounds nuw %struct.evp_pkey_ctx_st, ptr %32, i32 0, i32 16
  %34 = load ptr, ptr %33, align 8, !tbaa !19
  store ptr %34, ptr %9, align 8, !tbaa !8
  call void @llvm.lifetime.start.p0(i64 4, ptr %10) #6
  %35 = load ptr, ptr %7, align 8, !tbaa !51
  %36 = call i32 @atoi(ptr noundef %35) #7
  store i32 %36, ptr %10, align 4, !tbaa !45
  %37 = load i32, ptr %10, align 4, !tbaa !45
  %38 = icmp slt i32 %37, 0
  br i1 %38, label %42, label %39

39:                                               ; preds = %31
  %40 = load i32, ptr %10, align 4, !tbaa !45
  %41 = icmp sgt i32 %40, 3
  br i1 %41, label %42, label %43

42:                                               ; preds = %39, %31
  store i32 -2, ptr %4, align 4
  store i32 1, ptr %11, align 4
  br label %47

43:                                               ; preds = %39
  %44 = load i32, ptr %10, align 4, !tbaa !45
  %45 = load ptr, ptr %9, align 8, !tbaa !8
  %46 = getelementptr inbounds nuw %struct.DH_PKEY_CTX, ptr %45, i32 0, i32 6
  store i32 %44, ptr %46, align 8, !tbaa !34
  store i32 1, ptr %4, align 4
  store i32 1, ptr %11, align 4
  br label %47

47:                                               ; preds = %43, %42
  call void @llvm.lifetime.end.p0(i64 4, ptr %10) #6
  call void @llvm.lifetime.end.p0(i64 8, ptr %9) #6
  br label %107

48:                                               ; preds = %27
  %49 = load ptr, ptr %6, align 8, !tbaa !51
  %50 = call i32 @strcmp(ptr noundef %49, ptr noundef @.str.3) #7
  %51 = icmp eq i32 %50, 0
  br i1 %51, label %52, label %66

52:                                               ; preds = %48
  call void @llvm.lifetime.start.p0(i64 8, ptr %12) #6
  %53 = load ptr, ptr %5, align 8, !tbaa !3
  %54 = getelementptr inbounds nuw %struct.evp_pkey_ctx_st, ptr %53, i32 0, i32 16
  %55 = load ptr, ptr %54, align 8, !tbaa !19
  store ptr %55, ptr %12, align 8, !tbaa !8
  call void @llvm.lifetime.start.p0(i64 4, ptr %13) #6
  %56 = load ptr, ptr %7, align 8, !tbaa !51
  %57 = call i32 @OBJ_sn2nid(ptr noundef %56)
  store i32 %57, ptr %13, align 4, !tbaa !45
  %58 = load i32, ptr %13, align 4, !tbaa !45
  %59 = icmp eq i32 %58, 0
  br i1 %59, label %60, label %61

60:                                               ; preds = %52
  call void @ERR_new()
  call void @ERR_set_debug(ptr noundef @.str, i32 noundef 245, ptr noundef @__func__.pkey_dh_ctrl_str)
  call void (i32, i32, ptr, ...) @ERR_set_error(i32 noundef 5, i32 noundef 110, ptr noundef null)
  store i32 -2, ptr %4, align 4
  store i32 1, ptr %11, align 4
  br label %65

61:                                               ; preds = %52
  %62 = load i32, ptr %13, align 4, !tbaa !45
  %63 = load ptr, ptr %12, align 8, !tbaa !8
  %64 = getelementptr inbounds nuw %struct.DH_PKEY_CTX, ptr %63, i32 0, i32 6
  store i32 %62, ptr %64, align 8, !tbaa !34
  store i32 1, ptr %4, align 4
  store i32 1, ptr %11, align 4
  br label %65

65:                                               ; preds = %61, %60
  call void @llvm.lifetime.end.p0(i64 4, ptr %13) #6
  call void @llvm.lifetime.end.p0(i64 8, ptr %12) #6
  br label %107

66:                                               ; preds = %48
  %67 = load ptr, ptr %6, align 8, !tbaa !51
  %68 = call i32 @strcmp(ptr noundef %67, ptr noundef @.str.4) #7
  %69 = icmp eq i32 %68, 0
  br i1 %69, label %70, label %76

70:                                               ; preds = %66
  call void @llvm.lifetime.start.p0(i64 4, ptr %14) #6
  %71 = load ptr, ptr %7, align 8, !tbaa !51
  %72 = call i32 @atoi(ptr noundef %71) #7
  store i32 %72, ptr %14, align 4, !tbaa !45
  %73 = load ptr, ptr %5, align 8, !tbaa !3
  %74 = load i32, ptr %14, align 4, !tbaa !45
  %75 = call i32 @EVP_PKEY_CTX_set_dh_paramgen_generator(ptr noundef %73, i32 noundef %74)
  store i32 %75, ptr %4, align 4
  store i32 1, ptr %11, align 4
  call void @llvm.lifetime.end.p0(i64 4, ptr %14) #6
  br label %107

76:                                               ; preds = %66
  %77 = load ptr, ptr %6, align 8, !tbaa !51
  %78 = call i32 @strcmp(ptr noundef %77, ptr noundef @.str.5) #7
  %79 = icmp eq i32 %78, 0
  br i1 %79, label %80, label %86

80:                                               ; preds = %76
  call void @llvm.lifetime.start.p0(i64 4, ptr %15) #6
  %81 = load ptr, ptr %7, align 8, !tbaa !51
  %82 = call i32 @atoi(ptr noundef %81) #7
  store i32 %82, ptr %15, align 4, !tbaa !45
  %83 = load ptr, ptr %5, align 8, !tbaa !3
  %84 = load i32, ptr %15, align 4, !tbaa !45
  %85 = call i32 @EVP_PKEY_CTX_set_dh_paramgen_subprime_len(ptr noundef %83, i32 noundef %84)
  store i32 %85, ptr %4, align 4
  store i32 1, ptr %11, align 4
  call void @llvm.lifetime.end.p0(i64 4, ptr %15) #6
  br label %107

86:                                               ; preds = %76
  %87 = load ptr, ptr %6, align 8, !tbaa !51
  %88 = call i32 @strcmp(ptr noundef %87, ptr noundef @.str.6) #7
  %89 = icmp eq i32 %88, 0
  br i1 %89, label %90, label %96

90:                                               ; preds = %86
  call void @llvm.lifetime.start.p0(i64 4, ptr %16) #6
  %91 = load ptr, ptr %7, align 8, !tbaa !51
  %92 = call i32 @atoi(ptr noundef %91) #7
  store i32 %92, ptr %16, align 4, !tbaa !45
  %93 = load ptr, ptr %5, align 8, !tbaa !3
  %94 = load i32, ptr %16, align 4, !tbaa !45
  %95 = call i32 @EVP_PKEY_CTX_set_dh_paramgen_type(ptr noundef %93, i32 noundef %94)
  store i32 %95, ptr %4, align 4
  store i32 1, ptr %11, align 4
  call void @llvm.lifetime.end.p0(i64 4, ptr %16) #6
  br label %107

96:                                               ; preds = %86
  %97 = load ptr, ptr %6, align 8, !tbaa !51
  %98 = call i32 @strcmp(ptr noundef %97, ptr noundef @.str.7) #7
  %99 = icmp eq i32 %98, 0
  br i1 %99, label %100, label %106

100:                                              ; preds = %96
  call void @llvm.lifetime.start.p0(i64 4, ptr %17) #6
  %101 = load ptr, ptr %7, align 8, !tbaa !51
  %102 = call i32 @atoi(ptr noundef %101) #7
  store i32 %102, ptr %17, align 4, !tbaa !45
  %103 = load ptr, ptr %5, align 8, !tbaa !3
  %104 = load i32, ptr %17, align 4, !tbaa !45
  %105 = call i32 @EVP_PKEY_CTX_set_dh_pad(ptr noundef %103, i32 noundef %104)
  store i32 %105, ptr %4, align 4
  store i32 1, ptr %11, align 4
  call void @llvm.lifetime.end.p0(i64 4, ptr %17) #6
  br label %107

106:                                              ; preds = %96
  store i32 -2, ptr %4, align 4
  br label %107

107:                                              ; preds = %106, %100, %90, %80, %70, %65, %47, %21
  %108 = load i32, ptr %4, align 4
  ret i32 %108
}