; Function Attrs: nounwind uwtable
define internal i32 @pkey_dh_ctrl_str(ptr noundef %0, ptr noundef readonly captures(none) %1, ptr noundef %2) #1 {
  %4 = tail call i32 @strcmp(ptr noundef nonnull dereferenceable(1) %1, ptr noundef nonnull dereferenceable(22) @.str.1) #7
  %5 = icmp eq i32 %4, 0
  br i1 %5, label %6, label %10

6:                                                ; preds = %3
  %7 = tail call i64 @strtol(ptr noundef nonnull captures(none) %2, ptr noundef null, i32 noundef 10) #6
  %8 = trunc i64 %7 to i32
  %9 = tail call i32 @EVP_PKEY_CTX_set_dh_paramgen_prime_len(ptr noundef %0, i32 noundef %8) #6
  br label %59

10:                                               ; preds = %3
  %11 = tail call i32 @strcmp(ptr noundef nonnull dereferenceable(1) %1, ptr noundef nonnull dereferenceable(11) @.str.2) #7
  %12 = icmp eq i32 %11, 0
  br i1 %12, label %13, label %20

13:                                               ; preds = %10
  %14 = tail call i64 @strtol(ptr noundef nonnull captures(none) %2, ptr noundef null, i32 noundef 10) #6
  %15 = trunc i64 %14 to i32
  %or.cond = icmp ugt i32 %15, 3
  br i1 %or.cond, label %59, label %16

16:                                               ; preds = %13
  %17 = getelementptr inbounds nuw i8, ptr %0, i64 152
  %18 = load ptr, ptr %17, align 8, !tbaa !16
  %19 = getelementptr inbounds nuw i8, ptr %18, i64 32
  store i32 %15, ptr %19, align 8, !tbaa !31
  br label %59

20:                                               ; preds = %10
  %21 = tail call i32 @strcmp(ptr noundef nonnull dereferenceable(1) %1, ptr noundef nonnull dereferenceable(9) @.str.3) #7
  %22 = icmp eq i32 %21, 0
  br i1 %22, label %23, label %31

23:                                               ; preds = %20
  %24 = getelementptr inbounds nuw i8, ptr %0, i64 152
  %25 = load ptr, ptr %24, align 8, !tbaa !16
  %26 = tail call i32 @OBJ_sn2nid(ptr noundef %2) #6
  %27 = icmp eq i32 %26, 0
  br i1 %27, label %28, label %29

28:                                               ; preds = %23
  tail call void @ERR_new() #6
  tail call void @ERR_set_debug(ptr noundef nonnull @.str, i32 noundef 245, ptr noundef nonnull @__func__.pkey_dh_ctrl_str) #6
  tail call void (i32, i32, ptr, ...) @ERR_set_error(i32 noundef 5, i32 noundef 110, ptr noundef null) #6
  br label %59

29:                                               ; preds = %23
  %30 = getelementptr inbounds nuw i8, ptr %25, i64 32
  store i32 %26, ptr %30, align 8, !tbaa !31
  br label %59

31:                                               ; preds = %20
  %32 = tail call i32 @strcmp(ptr noundef nonnull dereferenceable(1) %1, ptr noundef nonnull dereferenceable(22) @.str.4) #7
  %33 = icmp eq i32 %32, 0
  br i1 %33, label %34, label %38

34:                                               ; preds = %31
  %35 = tail call i64 @strtol(ptr noundef nonnull captures(none) %2, ptr noundef null, i32 noundef 10) #6
  %36 = trunc i64 %35 to i32
  %37 = tail call i32 @EVP_PKEY_CTX_set_dh_paramgen_generator(ptr noundef %0, i32 noundef %36) #6
  br label %59

38:                                               ; preds = %31
  %39 = tail call i32 @strcmp(ptr noundef nonnull dereferenceable(1) %1, ptr noundef nonnull dereferenceable(25) @.str.5) #7
  %40 = icmp eq i32 %39, 0
  br i1 %40, label %41, label %45

41:                                               ; preds = %38
  %42 = tail call i64 @strtol(ptr noundef nonnull captures(none) %2, ptr noundef null, i32 noundef 10) #6
  %43 = trunc i64 %42 to i32
  %44 = tail call i32 @EVP_PKEY_CTX_set_dh_paramgen_subprime_len(ptr noundef %0, i32 noundef %43) #6
  br label %59

45:                                               ; preds = %38
  %46 = tail call i32 @strcmp(ptr noundef nonnull dereferenceable(1) %1, ptr noundef nonnull dereferenceable(17) @.str.6) #7
  %47 = icmp eq i32 %46, 0
  br i1 %47, label %48, label %52

48:                                               ; preds = %45
  %49 = tail call i64 @strtol(ptr noundef nonnull captures(none) %2, ptr noundef null, i32 noundef 10) #6
  %50 = trunc i64 %49 to i32
  %51 = tail call i32 @EVP_PKEY_CTX_set_dh_paramgen_type(ptr noundef %0, i32 noundef %50) #6
  br label %59

52:                                               ; preds = %45
  %53 = tail call i32 @strcmp(ptr noundef nonnull dereferenceable(1) %1, ptr noundef nonnull dereferenceable(7) @.str.7) #7
  %54 = icmp eq i32 %53, 0
  br i1 %54, label %55, label %59

55:                                               ; preds = %52
  %56 = tail call i64 @strtol(ptr noundef nonnull captures(none) %2, ptr noundef null, i32 noundef 10) #6
  %57 = trunc i64 %56 to i32
  %58 = tail call i32 @EVP_PKEY_CTX_set_dh_pad(ptr noundef %0, i32 noundef %57) #6
  br label %59

59:                                               ; preds = %52, %28, %29, %16, %13, %55, %48, %41, %34, %6
  %.0 = phi i32 [ %9, %6 ], [ %37, %34 ], [ %44, %41 ], [ %51, %48 ], [ %58, %55 ], [ 1, %16 ], [ -2, %13 ], [ -2, %28 ], [ 1, %29 ], [ -2, %52 ]
  ret i32 %.0
}